target datalayout = "e-m:e-p270:32:32-p271:32:32-p272:64:64-i64:64-i128:128-f80:128-n8:16:32:64-S128"
target triple = "x86_64-pc-linux-gnu"

; Function Attrs: alwaysinline nounwind uwtable
define internal double @ff_exp10(double noundef %0) #3 {
  %2 = alloca double, align 8
  store double %0, ptr %2, align 8, !tbaa !20
  %3 = load double, ptr %2, align 8, !tbaa !20
  %4 = fmul nsz double 0x400A934F0979A371, %3
  %5 = call nsz double @llvm.exp2.f64(double %4)
  ret double %5
}

; Function Attrs: nounwind uwtable
define float @ff_amr_set_fixed_gain(float noundef %0, float noundef %1, ptr noundef %2, float noundef %3, ptr noundef %4) #0 {
  %6 = alloca float, align 4
  %7 = alloca float, align 4
  %8 = alloca ptr, align 8
  %9 = alloca float, align 4
  %10 = alloca ptr, align 8
  %11 = alloca float, align 4
  store float %0, ptr %6, align 4, !tbaa !22
  store float %1, ptr %7, align 4, !tbaa !22
  store ptr %2, ptr %8, align 8, !tbaa !24
  store float %3, ptr %9, align 4, !tbaa !22
  store ptr %4, ptr %10, align 8, !tbaa !24
  call void @llvm.lifetime.start.p0(i64 4, ptr %11) #7
  %12 = load float, ptr %6, align 4, !tbaa !22
  %13 = fpext nsz float %12 to double
  %14 = load ptr, ptr %10, align 8, !tbaa !24
  %15 = load ptr, ptr %8, align 8, !tbaa !24
  %16 = call nsz float @ff_scalarproduct_float_c(ptr noundef %14, ptr noundef %15, i32 noundef 4)
  %17 = load float, ptr %9, align 4, !tbaa !22
  %18 = fadd nsz float %16, %17
  %19 = fpext nsz float %18 to double
  %20 = fmul nsz double 5.000000e-02, %19
  %21 = call nsz double @ff_exp10(double noundef %20)
  %22 = fmul nsz double %13, %21
  %23 = load float, ptr %7, align 4, !tbaa !22
  %24 = fcmp nsz une float %23, 0.000000e+00
  br i1 %24, label %25, label %28

25:                                               ; preds = %5
  %26 = load float, ptr %7, align 4, !tbaa !22
  %27 = fpext nsz float %26 to double
  br label %29

28:                                               ; preds = %5
  br label %29

29:                                               ; preds = %28, %25
  %30 = phi nsz double [ %27, %25 ], [ 1.000000e+00, %28 ]
  %31 = fptrunc nsz double %30 to float
  %32 = call nsz float @llvm.sqrt.f32(float %31)
  %33 = fpext nsz float %32 to double
  %34 = fdiv nsz double %22, %33
  %35 = fptrunc nsz double %34 to float
  store float %35, ptr %11, align 4, !tbaa !22
  %36 = load ptr, ptr %8, align 8, !tbaa !24
  %37 = getelementptr inbounds float, ptr %36, i64 0
  %38 = load ptr, ptr %8, align 8, !tbaa !24
  %39 = getelementptr inbounds float, ptr %38, i64 1
  call void @llvm.memmove.p0.p0.i64(ptr align 4 %37, ptr align 4 %39, i64 12, i1 false)
  %40 = load float, ptr %6, align 4, !tbaa !22
  %41 = call nsz float @llvm.log10.f32(float %40)
  %42 = fpext nsz float %41 to double
  %43 = fmul nsz double 2.000000e+01, %42
  %44 = fptrunc nsz double %43 to float
  %45 = load ptr, ptr %8, align 8, !tbaa !24
  %46 = getelementptr inbounds float, ptr %45, i64 3
  store float %44, ptr %46, align 4, !tbaa !22
  %47 = load float, ptr %11, align 4, !tbaa !22
  call void @llvm.lifetime.end.p0(i64 4, ptr %11) #7
  ret float %47
}