; Function Attrs: nounwind uwtable
define float @ff_amr_set_fixed_gain(float noundef %0, float noundef %1, ptr noundef %2, float noundef %3, ptr noundef %4) local_unnamed_addr #0 {
  %6 = fpext nsz float %0 to double
  %7 = tail call nsz float @ff_scalarproduct_float_c(ptr noundef %4, ptr noundef %2, i32 noundef 4) #6
  %8 = fadd nsz float %3, %7
  %9 = fpext nsz float %8 to double
  %10 = fmul nsz double %9, 5.000000e-02
  %11 = fmul nsz double %10, 0x400A934F0979A371
  %12 = tail call nsz double @llvm.exp2.f64(double %11)
  %13 = fmul nsz double %12, %6
  %14 = fcmp nsz une float %1, 0.000000e+00
  %15 = tail call nsz float @llvm.sqrt.f32(float %1)
  %16 = select i1 %14, float %15, float 1.000000e+00
  %17 = fpext nsz float %16 to double
  %18 = fdiv nsz double %13, %17
  %19 = fptrunc nsz double %18 to float
  %20 = getelementptr inbounds nuw i8, ptr %2, i64 4
  tail call void @llvm.memmove.p0.p0.i64(ptr noundef nonnull align 4 dereferenceable(12) %2, ptr noundef nonnull align 4 dereferenceable(12) %20, i64 12, i1 false)
  %21 = tail call nsz float @llvm.log10.f32(float %0)
  %22 = fmul nsz float %21, 2.000000e+01
  %23 = getelementptr inbounds nuw i8, ptr %2, i64 12
  store float %22, ptr %23, align 4, !tbaa !14
  ret float %19
}